ARM GAS  /var/folders/7s/0cf3ym1n6ks3kh0bbp527rx00000gn/T//ccmOjFkz.s 			page 1


   1              		.cpu cortex-m7
   2              		.eabi_attribute 27, 1	@ Tag_ABI_HardFP_use
   3              		.eabi_attribute 28, 1	@ Tag_ABI_VFP_args
   4              		.eabi_attribute 20, 1	@ Tag_ABI_FP_denormal
   5              		.eabi_attribute 21, 1	@ Tag_ABI_FP_exceptions
   6              		.eabi_attribute 23, 3	@ Tag_ABI_FP_number_model
   7              		.eabi_attribute 24, 1	@ Tag_ABI_align8_needed
   8              		.eabi_attribute 25, 1	@ Tag_ABI_align8_preserved
   9              		.eabi_attribute 26, 1	@ Tag_ABI_enum_size
  10              		.eabi_attribute 30, 2	@ Tag_ABI_optimization_goals
  11              		.eabi_attribute 34, 1	@ Tag_CPU_unaligned_access
  12              		.eabi_attribute 18, 4	@ Tag_ABI_PCS_wchar_t
  13              		.file	"main.c"
  14              	@ GNU C17 (GNU Tools for Arm Embedded Processors 9-2019-q4-major) version 9.2.1 20191025 (release) 
  15              	@	compiled by GNU C version 4.2.1 Compatible Apple LLVM 9.0.0 (clang-900.0.39.2), GMP version 6.1.0
  16              	
  17              	@ GGC heuristics: --param ggc-min-expand=100 --param ggc-min-heapsize=131072
  18              	@ options passed:  -I . -I . -I /Users/pablomac/Developer/PlaydateSDK/C_API
  19              	@ -I arbero -imultilib thumb/v7e-m+fp/hard
  20              	@ -iprefix /usr/local/playdate/gcc-arm-none-eabi-9-2019-q4-major/bin/../lib/gcc/arm-none-eabi/9.2.1
  21              	@ -isysroot /usr/local/playdate/gcc-arm-none-eabi-9-2019-q4-major/bin/../arm-none-eabi
  22              	@ -MD build/main.d -MF build/dep/main.o.d -MP -MQ build/main.o
  23              	@ -D__USES_INITFINI__ -D __FPU_USED=1 -D TARGET_PLAYDATE=1
  24              	@ -D TARGET_EXTENSION=1 main.c -mthumb -mcpu=cortex-m7 -mfloat-abi=hard
  25              	@ -mfpu=fpv5-sp-d16 -mword-relocations -march=armv7e-m+fpv5
  26              	@ -auxbase-strip build/main.o -g3 -gdwarf-2 -O2 -Wall -Wno-unused
  27              	@ -Wstrict-prototypes -Wno-unknown-pragmas -Wdouble-promotion
  28              	@ -falign-functions=16 -fomit-frame-pointer -fverbose-asm -fno-common
  29              	@ -ffunction-sections -fdata-sections
  30              	@ options enabled:  -faggressive-loop-optimizations -falign-functions
  31              	@ -falign-jumps -falign-labels -falign-loops -fassume-phsa -fauto-inc-dec
  32              	@ -fbranch-count-reg -fcaller-saves -fcombine-stack-adjustments
  33              	@ -fcompare-elim -fcprop-registers -fcrossjumping -fcse-follow-jumps
  34              	@ -fdata-sections -fdefer-pop -fdelete-null-pointer-checks -fdevirtualize
  35              	@ -fdevirtualize-speculatively -fdwarf2-cfi-asm -fearly-inlining
  36              	@ -feliminate-unused-debug-types -fexpensive-optimizations
  37              	@ -fforward-propagate -ffp-int-builtin-inexact -ffunction-cse
  38              	@ -ffunction-sections -fgcse -fgcse-lm -fgnu-runtime -fgnu-unique
  39              	@ -fguess-branch-probability -fhoist-adjacent-loads -fident -fif-conversion
  40              	@ -fif-conversion2 -findirect-inlining -finline -finline-atomics
  41              	@ -finline-functions-called-once -finline-small-functions -fipa-bit-cp
  42              	@ -fipa-cp -fipa-icf -fipa-icf-functions -fipa-icf-variables -fipa-profile
  43              	@ -fipa-pure-const -fipa-ra -fipa-reference -fipa-reference-addressable
  44              	@ -fipa-sra -fipa-stack-alignment -fipa-vrp -fira-hoist-pressure
  45              	@ -fira-share-save-slots -fira-share-spill-slots
  46              	@ -fisolate-erroneous-paths-dereference -fivopts -fkeep-static-consts
  47              	@ -fleading-underscore -flifetime-dse -flra-remat -flto-odr-type-merging
  48              	@ -fmath-errno -fmerge-constants -fmerge-debug-strings
  49              	@ -fmove-loop-invariants -fomit-frame-pointer -foptimize-sibling-calls
  50              	@ -foptimize-strlen -fpartial-inlining -fpeephole -fpeephole2 -fplt
  51              	@ -fprefetch-loop-arrays -freg-struct-return -freorder-blocks
  52              	@ -freorder-functions -frerun-cse-after-loop
  53              	@ -fsched-critical-path-heuristic -fsched-dep-count-heuristic
  54              	@ -fsched-group-heuristic -fsched-interblock -fsched-last-insn-heuristic
  55              	@ -fsched-pressure -fsched-rank-heuristic -fsched-spec
  56              	@ -fsched-spec-insn-heuristic -fsched-stalled-insns-dep -fschedule-insns
  57              	@ -fschedule-insns2 -fsection-anchors -fsemantic-interposition
ARM GAS  /var/folders/7s/0cf3ym1n6ks3kh0bbp527rx00000gn/T//ccmOjFkz.s 			page 2


  58              	@ -fshow-column -fshrink-wrap -fshrink-wrap-separate -fsigned-zeros
  59              	@ -fsplit-ivs-in-unroller -fsplit-wide-types -fssa-backprop -fssa-phiopt
  60              	@ -fstdarg-opt -fstore-merging -fstrict-aliasing
  61              	@ -fstrict-volatile-bitfields -fsync-libcalls -fthread-jumps
  62              	@ -ftoplevel-reorder -ftrapping-math -ftree-bit-ccp -ftree-builtin-call-dce
  63              	@ -ftree-ccp -ftree-ch -ftree-coalesce-vars -ftree-copy-prop -ftree-cselim
  64              	@ -ftree-dce -ftree-dominator-opts -ftree-dse -ftree-forwprop -ftree-fre
  65              	@ -ftree-loop-if-convert -ftree-loop-im -ftree-loop-ivcanon
  66              	@ -ftree-loop-optimize -ftree-parallelize-loops= -ftree-phiprop -ftree-pre
  67              	@ -ftree-pta -ftree-reassoc -ftree-scev-cprop -ftree-sink -ftree-slsr
  68              	@ -ftree-sra -ftree-switch-conversion -ftree-tail-merge -ftree-ter
  69              	@ -ftree-vrp -funit-at-a-time -fvar-tracking -fvar-tracking-assignments
  70              	@ -fverbose-asm -fzero-initialized-in-bss -masm-syntax-unified -mbe32
  71              	@ -mlittle-endian -mpic-data-is-text-relative -msched-prolog -mthumb
  72              	@ -munaligned-access -mvectorize-with-neon-quad -mword-relocations
  73              	
  74              		.text
  75              	.Ltext0:
  76              		.cfi_sections	.debug_frame
  77              		.section	.text.update,"ax",%progbits
  78              		.align	1
  79              		.p2align 4,,15
  80              		.arch armv7e-m
  81              		.syntax unified
  82              		.thumb
  83              		.thumb_func
  84              		.fpu fpv5-sp-d16
  85              		.type	update, %function
  86              	update:
  87              	.LVL0:
  88              	.LFB17:
  89              		.file 1 "main.c"
   1:main.c        **** #include <stdio.h>
   2:main.c        **** #include <stdlib.h>
   3:main.c        **** 
   4:main.c        **** #include "arbero/engine.h"
   5:main.c        **** #include "pd_api.h"
   6:main.c        **** #include "math.h"
   7:main.c        **** 
   8:main.c        **** static int update(void* userdata);
   9:main.c        **** 
  10:main.c        **** PlaydateAPI* pd;
  11:main.c        **** 
  12:main.c        **** //RENDERING
  13:main.c        **** LCDBitmap* screenBuffer;
  14:main.c        **** uint8_t* screenBufferData;
  15:main.c        **** 
  16:main.c        **** 
  17:main.c        **** float mtx17c[4][4] ={
  18:main.c        **** 	{16.0/17,  8.0/17, 14.0/17,  6.0/17},
  19:main.c        **** 	{4.0/17, 12.0/17,  2.0/17, 10.0/17},
  20:main.c        **** 	{13.0/17,  5.0/17, 15.0/17,  7.0/17},
  21:main.c        **** 	{1.0/17,  9.0/17,  3.0/17, 11.0/17}
  22:main.c        **** };
  23:main.c        **** 
  24:main.c        **** float mtx9c[4][4] = {
  25:main.c        **** 	{8.0/9, 4.0/9, 7.0/9, 3.0/9},
ARM GAS  /var/folders/7s/0cf3ym1n6ks3kh0bbp527rx00000gn/T//ccmOjFkz.s 			page 3


  26:main.c        **** 	{2.0/9, 6.0/9, 1.0/9, 5.0/9},
  27:main.c        **** 	{7.0/9, 3.0/9, 8.0/9, 4.0/9},
  28:main.c        **** 	{1.0/9, 5.0/9, 2.0/9, 6.0/9}
  29:main.c        **** };
  30:main.c        **** 
  31:main.c        **** 
  32:main.c        **** //Delta time
  33:main.c        **** unsigned int lastFrame;
  34:main.c        **** int deltaTimeMS;
  35:main.c        **** 
  36:main.c        **** 
  37:main.c        **** void drawPixel(int x, int y){
  38:main.c        **** 	int byteIndex = 52 * y + x / 8; //52 Rowbytes
  39:main.c        **** 	int bitIndex = 7 - x % 8;
  40:main.c        **** 	screenBufferData[byteIndex] &= ~(1 << bitIndex);
  41:main.c        **** }
  42:main.c        **** 
  43:main.c        **** int eventHandler(PlaydateAPI* playdate, PDSystemEvent event, uint32_t arg)
  44:main.c        **** {
  45:main.c        **** 	(void)arg;
  46:main.c        **** 	
  47:main.c        **** 	if ( event == kEventInit )
  48:main.c        **** 	{
  49:main.c        **** 		pd = playdate;
  50:main.c        **** 		pd->system->setUpdateCallback(update, pd);
  51:main.c        **** 		screenBuffer = pd->graphics->newBitmap(400, 240, kColorWhite);
  52:main.c        **** 		pd->graphics->getBitmapData(screenBuffer, NULL, NULL, NULL, NULL, &screenBufferData);
  53:main.c        **** 		pd->display->setRefreshRate(0);
  54:main.c        **** 		int a = 5;
  55:main.c        **** 		pd->system->logToConsole("%d",a);
  56:main.c        **** 		int b = engineStart(a);
  57:main.c        **** 		pd->system->logToConsole("%d",b);
  58:main.c        **** 		
  59:main.c        **** 		for (int i = 0; i < 400; i++)
  60:main.c        **** 		{
  61:main.c        **** 			for (int j = 0; j < 240; j++)
  62:main.c        **** 			{
  63:main.c        **** 				if(i%2 == 0 && j%2 == 0){
  64:main.c        **** 					drawPixel(i, j);
  65:main.c        **** 				} 
  66:main.c        **** 			}
  67:main.c        **** 		}
  68:main.c        **** 		
  69:main.c        **** 	}
  70:main.c        **** 	return 0;
  71:main.c        **** }
  72:main.c        **** 
  73:main.c        **** 
  74:main.c        **** 
  75:main.c        **** 
  76:main.c        **** 
  77:main.c        **** 
  78:main.c        **** 
  79:main.c        **** 
  80:main.c        **** static int update(void* userdata){
  90              		.loc 1 80 34 view -0
  91              		.cfi_startproc
ARM GAS  /var/folders/7s/0cf3ym1n6ks3kh0bbp527rx00000gn/T//ccmOjFkz.s 			page 4


  92              		@ args = 0, pretend = 0, frame = 0
  93              		@ frame_needed = 0, uses_anonymous_args = 0
  81:main.c        **** 	//Check player location
  82:main.c        **** 	deltaTimeMS = pd->system->getCurrentTimeMilliseconds() - lastFrame;
  94              		.loc 1 82 2 view .LVU1
  95              	@ main.c:80: static int update(void* userdata){
  80:main.c        **** 	//Check player location
  96              		.loc 1 80 34 is_stmt 0 view .LVU2
  97 0000 F8B5     		push	{r3, r4, r5, r6, r7, lr}	@
  98              	.LCFI0:
  99              		.cfi_def_cfa_offset 24
 100              		.cfi_offset 3, -24
 101              		.cfi_offset 4, -20
 102              		.cfi_offset 5, -16
 103              		.cfi_offset 6, -12
 104              		.cfi_offset 7, -8
 105              		.cfi_offset 14, -4
 106              	@ main.c:82: 	deltaTimeMS = pd->system->getCurrentTimeMilliseconds() - lastFrame;
 107              		.loc 1 82 18 view .LVU3
 108 0002 124C     		ldr	r4, .L4	@ tmp133,
 109              	@ main.c:82: 	deltaTimeMS = pd->system->getCurrentTimeMilliseconds() - lastFrame;
 110              		.loc 1 82 57 view .LVU4
 111 0004 124D     		ldr	r5, .L4+4	@ tmp138,
 112              	@ main.c:82: 	deltaTimeMS = pd->system->getCurrentTimeMilliseconds() - lastFrame;
 113              		.loc 1 82 18 view .LVU5
 114 0006 2368     		ldr	r3, [r4]	@ pd, pd
 115              	@ main.c:92: 	pd->graphics->drawBitmap(screenBuffer, 0, 0, 0);
  83:main.c        **** 	lastFrame = pd->system->getCurrentTimeMilliseconds();
  84:main.c        ****    
  85:main.c        ****    
  86:main.c        ****     //TODO Optimize by  only update what went from black to white and the oppostite
  87:main.c        **** 	//screenBuffer = pd->graphics->newBitmap(400, 240, kColorWhite);
  88:main.c        **** 	//pd->graphics->getBitmapData(screenBuffer, NULL, NULL, NULL, NULL, &screenBufferData);
  89:main.c        **** 	
  90:main.c        **** 
  91:main.c        **** 
  92:main.c        **** 	pd->graphics->drawBitmap(screenBuffer, 0, 0, 0);
 116              		.loc 1 92 2 view .LVU6
 117 0008 124E     		ldr	r6, .L4+8	@ tmp146,
 118              	@ main.c:82: 	deltaTimeMS = pd->system->getCurrentTimeMilliseconds() - lastFrame;
  82:main.c        **** 	lastFrame = pd->system->getCurrentTimeMilliseconds();
 119              		.loc 1 82 26 view .LVU7
 120 000a 1B68     		ldr	r3, [r3]	@ pd.14_1->system, pd.14_1->system
 121              	@ main.c:82: 	deltaTimeMS = pd->system->getCurrentTimeMilliseconds() - lastFrame;
  82:main.c        **** 	lastFrame = pd->system->getCurrentTimeMilliseconds();
 122              		.loc 1 82 16 view .LVU8
 123 000c 5B69     		ldr	r3, [r3, #20]	@ _2->getCurrentTimeMilliseconds, _2->getCurrentTimeMilliseconds
 124 000e 9847     		blx	r3		@ _2->getCurrentTimeMilliseconds
 125              	.LVL1:
 126              	@ main.c:82: 	deltaTimeMS = pd->system->getCurrentTimeMilliseconds() - lastFrame;
  82:main.c        **** 	lastFrame = pd->system->getCurrentTimeMilliseconds();
 127              		.loc 1 82 57 view .LVU9
 128 0010 2A68     		ldr	r2, [r5]	@ lastFrame, lastFrame
 129              	@ main.c:83: 	lastFrame = pd->system->getCurrentTimeMilliseconds();
  83:main.c        **** 	lastFrame = pd->system->getCurrentTimeMilliseconds();
 130              		.loc 1 83 16 view .LVU10
 131 0012 2368     		ldr	r3, [r4]	@ pd, pd
ARM GAS  /var/folders/7s/0cf3ym1n6ks3kh0bbp527rx00000gn/T//ccmOjFkz.s 			page 5


 132              	@ main.c:82: 	deltaTimeMS = pd->system->getCurrentTimeMilliseconds() - lastFrame;
  82:main.c        **** 	lastFrame = pd->system->getCurrentTimeMilliseconds();
 133              		.loc 1 82 57 view .LVU11
 134 0014 801A     		subs	r0, r0, r2	@ tmp139, tmp161, lastFrame
 135              	@ main.c:82: 	deltaTimeMS = pd->system->getCurrentTimeMilliseconds() - lastFrame;
  82:main.c        **** 	lastFrame = pd->system->getCurrentTimeMilliseconds();
 136              		.loc 1 82 14 view .LVU12
 137 0016 104A     		ldr	r2, .L4+12	@ tmp137,
 138              	@ main.c:83: 	lastFrame = pd->system->getCurrentTimeMilliseconds();
  83:main.c        **** 	lastFrame = pd->system->getCurrentTimeMilliseconds();
 139              		.loc 1 83 24 view .LVU13
 140 0018 1B68     		ldr	r3, [r3]	@ pd.16_8->system, pd.16_8->system
 141              	@ main.c:82: 	deltaTimeMS = pd->system->getCurrentTimeMilliseconds() - lastFrame;
  82:main.c        **** 	lastFrame = pd->system->getCurrentTimeMilliseconds();
 142              		.loc 1 82 14 view .LVU14
 143 001a 1060     		str	r0, [r2]	@ tmp139, deltaTimeMS
  83:main.c        **** 	lastFrame = pd->system->getCurrentTimeMilliseconds();
 144              		.loc 1 83 2 is_stmt 1 view .LVU15
 145              	@ main.c:83: 	lastFrame = pd->system->getCurrentTimeMilliseconds();
  83:main.c        **** 	lastFrame = pd->system->getCurrentTimeMilliseconds();
 146              		.loc 1 83 14 is_stmt 0 view .LVU16
 147 001c 5B69     		ldr	r3, [r3, #20]	@ _9->getCurrentTimeMilliseconds, _9->getCurrentTimeMilliseconds
 148 001e 9847     		blx	r3		@ _9->getCurrentTimeMilliseconds
 149              	.LVL2:
 150              	@ main.c:92: 	pd->graphics->drawBitmap(screenBuffer, 0, 0, 0);
 151              		.loc 1 92 4 view .LVU17
 152 0020 2268     		ldr	r2, [r4]	@ pd, pd
 153              	@ main.c:92: 	pd->graphics->drawBitmap(screenBuffer, 0, 0, 0);
 154              		.loc 1 92 2 view .LVU18
 155 0022 0023     		movs	r3, #0	@,
 156              	@ main.c:83: 	lastFrame = pd->system->getCurrentTimeMilliseconds();
  83:main.c        **** 	lastFrame = pd->system->getCurrentTimeMilliseconds();
 157              		.loc 1 83 12 view .LVU19
 158 0024 2860     		str	r0, [r5]	@ tmp162, lastFrame
 159              		.loc 1 92 2 is_stmt 1 view .LVU20
 160              	@ main.c:92: 	pd->graphics->drawBitmap(screenBuffer, 0, 0, 0);
 161              		.loc 1 92 14 is_stmt 0 view .LVU21
 162 0026 9768     		ldr	r7, [r2, #8]	@ pd.17_12->graphics, pd.17_12->graphics
 163              	@ main.c:92: 	pd->graphics->drawBitmap(screenBuffer, 0, 0, 0);
 164              		.loc 1 92 2 view .LVU22
 165 0028 1946     		mov	r1, r3	@,
 166 002a 1A46     		mov	r2, r3	@,
 167 002c 3068     		ldr	r0, [r6]	@, screenBuffer
 168 002e 7D6B     		ldr	r5, [r7, #52]	@ _13->drawBitmap, _13->drawBitmap
 169 0030 A847     		blx	r5		@ _13->drawBitmap
 170              	.LVL3:
  93:main.c        **** 	pd->system->drawFPS(10,10);
 171              		.loc 1 93 2 is_stmt 1 view .LVU23
 172              	@ main.c:93: 	pd->system->drawFPS(10,10);
 173              		.loc 1 93 4 is_stmt 0 view .LVU24
 174 0032 2368     		ldr	r3, [r4]	@ pd, pd
 175              	@ main.c:93: 	pd->system->drawFPS(10,10);
 176              		.loc 1 93 2 view .LVU25
 177 0034 0A21     		movs	r1, #10	@,
 178              	@ main.c:93: 	pd->system->drawFPS(10,10);
 179              		.loc 1 93 12 view .LVU26
 180 0036 1B68     		ldr	r3, [r3]	@ pd.19_16->system, pd.19_16->system
ARM GAS  /var/folders/7s/0cf3ym1n6ks3kh0bbp527rx00000gn/T//ccmOjFkz.s 			page 6


 181              	@ main.c:93: 	pd->system->drawFPS(10,10);
 182              		.loc 1 93 2 view .LVU27
 183 0038 0846     		mov	r0, r1	@,
 184 003a DB69     		ldr	r3, [r3, #28]	@ _17->drawFPS, _17->drawFPS
 185 003c 9847     		blx	r3		@ _17->drawFPS
 186              	.LVL4:
  94:main.c        **** 	pd->system->resetElapsedTime();
 187              		.loc 1 94 2 is_stmt 1 view .LVU28
 188              	@ main.c:94: 	pd->system->resetElapsedTime();
 189              		.loc 1 94 4 is_stmt 0 view .LVU29
 190 003e 2368     		ldr	r3, [r4]	@ pd, pd
 191              	@ main.c:94: 	pd->system->resetElapsedTime();
 192              		.loc 1 94 12 view .LVU30
 193 0040 1B68     		ldr	r3, [r3]	@ pd.20_19->system, pd.20_19->system
 194              	@ main.c:94: 	pd->system->resetElapsedTime();
 195              		.loc 1 94 2 view .LVU31
 196 0042 D3F88030 		ldr	r3, [r3, #128]	@ _20->resetElapsedTime, _20->resetElapsedTime
 197 0046 9847     		blx	r3		@ _20->resetElapsedTime
 198              	.LVL5:
  95:main.c        **** 	return 1;
 199              		.loc 1 95 2 is_stmt 1 view .LVU32
 200              	@ main.c:96: }
  96:main.c        **** }
 201              		.loc 1 96 1 is_stmt 0 view .LVU33
 202 0048 0120     		movs	r0, #1	@,
 203 004a F8BD     		pop	{r3, r4, r5, r6, r7, pc}	@
 204              	.L5:
 205              		.align	2
 206              	.L4:
 207 004c 00000000 		.word	.LANCHOR0
 208 0050 00000000 		.word	.LANCHOR2
 209 0054 00000000 		.word	.LANCHOR3
 210 0058 00000000 		.word	.LANCHOR1
 211              		.cfi_endproc
 212              	.LFE17:
 213              		.size	update, .-update
 214              		.section	.text.drawPixel,"ax",%progbits
 215              		.align	1
 216              		.p2align 4,,15
 217              		.global	drawPixel
 218              		.syntax unified
 219              		.thumb
 220              		.thumb_func
 221              		.fpu fpv5-sp-d16
 222              		.type	drawPixel, %function
 223              	drawPixel:
 224              	.LVL6:
 225              	.LFB15:
  37:main.c        **** 	int byteIndex = 52 * y + x / 8; //52 Rowbytes
 226              		.loc 1 37 29 is_stmt 1 view -0
 227              		.cfi_startproc
 228              		@ args = 0, pretend = 0, frame = 0
 229              		@ frame_needed = 0, uses_anonymous_args = 0
 230              		@ link register save eliminated.
  38:main.c        **** 	int bitIndex = 7 - x % 8;
 231              		.loc 1 38 2 view .LVU35
 232              	@ main.c:38: 	int byteIndex = 52 * y + x / 8; //52 Rowbytes
ARM GAS  /var/folders/7s/0cf3ym1n6ks3kh0bbp527rx00000gn/T//ccmOjFkz.s 			page 7


  38:main.c        **** 	int bitIndex = 7 - x % 8;
 233              		.loc 1 38 21 is_stmt 0 view .LVU36
 234 0000 3423     		movs	r3, #52	@ tmp129,
 235              	@ main.c:38: 	int byteIndex = 52 * y + x / 8; //52 Rowbytes
  38:main.c        **** 	int bitIndex = 7 - x % 8;
 236              		.loc 1 38 29 view .LVU37
 237 0002 0028     		cmp	r0, #0	@ x,
 238              	@ main.c:40: 	screenBufferData[byteIndex] &= ~(1 << bitIndex);
  40:main.c        **** }
 239              		.loc 1 40 30 view .LVU38
 240 0004 0E4A     		ldr	r2, .L10	@ tmp127,
 241              	.LVL7:
  39:main.c        **** 	screenBufferData[byteIndex] &= ~(1 << bitIndex);
 242              		.loc 1 39 2 is_stmt 1 view .LVU39
  40:main.c        **** }
 243              		.loc 1 40 2 view .LVU40
 244              	@ main.c:38: 	int byteIndex = 52 * y + x / 8; //52 Rowbytes
  38:main.c        **** 	int bitIndex = 7 - x % 8;
 245              		.loc 1 38 21 is_stmt 0 view .LVU41
 246 0006 03FB01F1 		mul	r1, r3, r1	@ tmp128, tmp129, tmp150
 247              	.LVL8:
 248              	@ main.c:38: 	int byteIndex = 52 * y + x / 8; //52 Rowbytes
  38:main.c        **** 	int bitIndex = 7 - x % 8;
 249              		.loc 1 38 29 view .LVU42
 250 000a B4BF     		ite	lt
 251 000c C31D     		addlt	r3, r0, #7	@ x, x,
 252 000e 0346     		movge	r3, r0	@ x, x
 253              	@ main.c:37: void drawPixel(int x, int y){
  37:main.c        **** 	int byteIndex = 52 * y + x / 8; //52 Rowbytes
 254              		.loc 1 37 29 view .LVU43
 255 0010 30B4     		push	{r4, r5}	@
 256              	.LCFI1:
 257              		.cfi_def_cfa_offset 8
 258              		.cfi_offset 4, -8
 259              		.cfi_offset 5, -4
 260              	@ main.c:39: 	int bitIndex = 7 - x % 8;
  39:main.c        **** 	screenBufferData[byteIndex] &= ~(1 << bitIndex);
 261              		.loc 1 39 23 view .LVU44
 262 0012 4442     		rsbs	r4, r0, #0	@ tmp137, x,
 263 0014 00F00700 		and	r0, r0, #7	@ tmp136, x,
 264              	.LVL9:
 265              	@ main.c:40: 	screenBufferData[byteIndex] &= ~(1 << bitIndex);
  40:main.c        **** }
 266              		.loc 1 40 30 view .LVU45
 267 0018 1568     		ldr	r5, [r2]	@ screenBufferData, screenBufferData
 268              	@ main.c:38: 	int byteIndex = 52 * y + x / 8; //52 Rowbytes
  38:main.c        **** 	int bitIndex = 7 - x % 8;
 269              		.loc 1 38 6 view .LVU46
 270 001a 01EBE301 		add	r1, r1, r3, asr #3	@ byteIndex, tmp128, x,
 271              	@ main.c:39: 	int bitIndex = 7 - x % 8;
  39:main.c        **** 	screenBufferData[byteIndex] &= ~(1 << bitIndex);
 272              		.loc 1 39 23 view .LVU47
 273 001e 04F00704 		and	r4, r4, #7	@ tmp138, tmp137,
 274              	@ main.c:40: 	screenBufferData[byteIndex] &= ~(1 << bitIndex);
  40:main.c        **** }
 275              		.loc 1 40 37 view .LVU48
 276 0022 4FF00102 		mov	r2, #1	@ tmp141,
ARM GAS  /var/folders/7s/0cf3ym1n6ks3kh0bbp527rx00000gn/T//ccmOjFkz.s 			page 8


 277              	@ main.c:40: 	screenBufferData[byteIndex] &= ~(1 << bitIndex);
  40:main.c        **** }
 278              		.loc 1 40 30 view .LVU49
 279 0026 6B5C     		ldrb	r3, [r5, r1]	@ zero_extendqisi2	@ *_6, *_6
 280              	@ main.c:39: 	int bitIndex = 7 - x % 8;
  39:main.c        **** 	screenBufferData[byteIndex] &= ~(1 << bitIndex);
 281              		.loc 1 39 23 view .LVU50
 282 0028 58BF     		it	pl
 283 002a 6042     		rsbpl	r0, r4, #0	@ tmp136, tmp138
 284              	@ main.c:39: 	int bitIndex = 7 - x % 8;
  39:main.c        **** 	screenBufferData[byteIndex] &= ~(1 << bitIndex);
 285              		.loc 1 39 6 view .LVU51
 286 002c C0F10700 		rsb	r0, r0, #7	@ bitIndex, tmp136,
 287              	@ main.c:40: 	screenBufferData[byteIndex] &= ~(1 << bitIndex);
  40:main.c        **** }
 288              		.loc 1 40 37 view .LVU52
 289 0030 02FA00F0 		lsl	r0, r2, r0	@ tmp140, tmp141, bitIndex
 290              	@ main.c:40: 	screenBufferData[byteIndex] &= ~(1 << bitIndex);
  40:main.c        **** }
 291              		.loc 1 40 30 view .LVU53
 292 0034 23EA0000 		bic	r0, r3, r0	@ tmp147, *_6, tmp140
 293 0038 6854     		strb	r0, [r5, r1]	@ tmp147, *_6
 294              	@ main.c:41: }
  41:main.c        **** 
 295              		.loc 1 41 1 view .LVU54
 296 003a 30BC     		pop	{r4, r5}	@
 297              	.LCFI2:
 298              		.cfi_restore 5
 299              		.cfi_restore 4
 300              		.cfi_def_cfa_offset 0
 301 003c 7047     		bx	lr	@
 302              	.L11:
 303 003e 00BF     		.align	2
 304              	.L10:
 305 0040 00000000 		.word	.LANCHOR4
 306              		.cfi_endproc
 307              	.LFE15:
 308              		.size	drawPixel, .-drawPixel
 309              		.section	.rodata.eventHandler.str1.4,"aMS",%progbits,1
 310              		.align	2
 311              	.LC0:
 312 0000 256400   		.ascii	"%d\000"
 313              		.section	.text.eventHandler,"ax",%progbits
 314              		.align	1
 315              		.p2align 4,,15
 316              		.global	eventHandler
 317              		.syntax unified
 318              		.thumb
 319              		.thumb_func
 320              		.fpu fpv5-sp-d16
 321              		.type	eventHandler, %function
 322              	eventHandler:
 323              	.LVL10:
 324              	.LFB16:
  44:main.c        **** 	(void)arg;
 325              		.loc 1 44 1 is_stmt 1 view -0
 326              		.cfi_startproc
ARM GAS  /var/folders/7s/0cf3ym1n6ks3kh0bbp527rx00000gn/T//ccmOjFkz.s 			page 9


 327              		@ args = 0, pretend = 0, frame = 0
 328              		@ frame_needed = 0, uses_anonymous_args = 0
  45:main.c        **** 	
 329              		.loc 1 45 2 view .LVU56
  47:main.c        **** 	{
 330              		.loc 1 47 2 view .LVU57
 331              	@ main.c:47: 	if ( event == kEventInit )
  47:main.c        **** 	{
 332              		.loc 1 47 5 is_stmt 0 view .LVU58
 333 0000 0029     		cmp	r1, #0	@ event
 334 0002 59D1     		bne	.L22	@
 335              	.LBB7:
  49:main.c        **** 		pd->system->setUpdateCallback(update, pd);
 336              		.loc 1 49 3 is_stmt 1 view .LVU59
 337              	@ main.c:50: 		pd->system->setUpdateCallback(update, pd);
  50:main.c        **** 		screenBuffer = pd->graphics->newBitmap(400, 240, kColorWhite);
 338              		.loc 1 50 13 is_stmt 0 view .LVU60
 339 0004 0368     		ldr	r3, [r0]	@ playdate_33(D)->system, playdate_33(D)->system
 340              	.LBE7:
 341              	@ main.c:44: {
  44:main.c        **** 	(void)arg;
 342              		.loc 1 44 1 view .LVU61
 343 0006 F0B5     		push	{r4, r5, r6, r7, lr}	@
 344              	.LCFI3:
 345              		.cfi_def_cfa_offset 20
 346              		.cfi_offset 4, -20
 347              		.cfi_offset 5, -16
 348              		.cfi_offset 6, -12
 349              		.cfi_offset 7, -8
 350              		.cfi_offset 14, -4
 351              	.LBB22:
 352              	@ main.c:49: 		pd = playdate;
  49:main.c        **** 		pd->system->setUpdateCallback(update, pd);
 353              		.loc 1 49 6 view .LVU62
 354 0008 2C4E     		ldr	r6, .L26	@ tmp155,
 355              	.LBE22:
 356              	@ main.c:44: {
  44:main.c        **** 	(void)arg;
 357              		.loc 1 44 1 view .LVU63
 358 000a 83B0     		sub	sp, sp, #12	@,,
 359              	.LCFI4:
 360              		.cfi_def_cfa_offset 32
 361 000c 0D46     		mov	r5, r1	@ event, tmp208
 362              	.LBB23:
 363              	@ main.c:50: 		pd->system->setUpdateCallback(update, pd);
  50:main.c        **** 		screenBuffer = pd->graphics->newBitmap(400, 240, kColorWhite);
 364              		.loc 1 50 3 view .LVU64
 365 000e 1B6A     		ldr	r3, [r3, #32]	@ _2->setUpdateCallback, _2->setUpdateCallback
 366 0010 0146     		mov	r1, r0	@, playdate
 367              	.LVL11:
 368              	@ main.c:49: 		pd = playdate;
  49:main.c        **** 		pd->system->setUpdateCallback(update, pd);
 369              		.loc 1 49 6 view .LVU65
 370 0012 3060     		str	r0, [r6]	@ playdate, pd
  50:main.c        **** 		screenBuffer = pd->graphics->newBitmap(400, 240, kColorWhite);
 371              		.loc 1 50 3 is_stmt 1 view .LVU66
 372 0014 2A48     		ldr	r0, .L26+4	@,
ARM GAS  /var/folders/7s/0cf3ym1n6ks3kh0bbp527rx00000gn/T//ccmOjFkz.s 			page 10


 373              	.LVL12:
  50:main.c        **** 		screenBuffer = pd->graphics->newBitmap(400, 240, kColorWhite);
 374              		.loc 1 50 3 is_stmt 0 view .LVU67
 375 0016 9847     		blx	r3		@ _2->setUpdateCallback
 376              	.LVL13:
  51:main.c        **** 		pd->graphics->getBitmapData(screenBuffer, NULL, NULL, NULL, NULL, &screenBufferData);
 377              		.loc 1 51 3 is_stmt 1 view .LVU68
 378              	@ main.c:51: 		screenBuffer = pd->graphics->newBitmap(400, 240, kColorWhite);
  51:main.c        **** 		pd->graphics->getBitmapData(screenBuffer, NULL, NULL, NULL, NULL, &screenBufferData);
 379              		.loc 1 51 20 is_stmt 0 view .LVU69
 380 0018 3368     		ldr	r3, [r6]	@ pd, pd
 381              	@ main.c:51: 		screenBuffer = pd->graphics->newBitmap(400, 240, kColorWhite);
  51:main.c        **** 		pd->graphics->getBitmapData(screenBuffer, NULL, NULL, NULL, NULL, &screenBufferData);
 382              		.loc 1 51 18 view .LVU70
 383 001a 0122     		movs	r2, #1	@,
 384 001c F021     		movs	r1, #240	@,
 385              	@ main.c:51: 		screenBuffer = pd->graphics->newBitmap(400, 240, kColorWhite);
  51:main.c        **** 		pd->graphics->getBitmapData(screenBuffer, NULL, NULL, NULL, NULL, &screenBufferData);
 386              		.loc 1 51 30 view .LVU71
 387 001e 9B68     		ldr	r3, [r3, #8]	@ pd.6_5->graphics, pd.6_5->graphics
 388              	@ main.c:51: 		screenBuffer = pd->graphics->newBitmap(400, 240, kColorWhite);
  51:main.c        **** 		pd->graphics->getBitmapData(screenBuffer, NULL, NULL, NULL, NULL, &screenBufferData);
 389              		.loc 1 51 18 view .LVU72
 390 0020 4FF4C870 		mov	r0, #400	@,
 391              	@ main.c:52: 		pd->graphics->getBitmapData(screenBuffer, NULL, NULL, NULL, NULL, &screenBufferData)
  52:main.c        **** 		pd->display->setRefreshRate(0);
 392              		.loc 1 52 3 view .LVU73
 393 0024 274C     		ldr	r4, .L26+8	@ tmp203,
 394              	@ main.c:51: 		screenBuffer = pd->graphics->newBitmap(400, 240, kColorWhite);
  51:main.c        **** 		pd->graphics->getBitmapData(screenBuffer, NULL, NULL, NULL, NULL, &screenBufferData);
 395              		.loc 1 51 18 view .LVU74
 396 0026 DB6D     		ldr	r3, [r3, #92]	@ _6->newBitmap, _6->newBitmap
 397 0028 9847     		blx	r3		@ _6->newBitmap
 398              	.LVL14:
 399              	@ main.c:52: 		pd->graphics->getBitmapData(screenBuffer, NULL, NULL, NULL, NULL, &screenBufferData)
  52:main.c        **** 		pd->display->setRefreshRate(0);
 400              		.loc 1 52 5 view .LVU75
 401 002a 3768     		ldr	r7, [r6]	@ pd, pd
 402              	@ main.c:51: 		screenBuffer = pd->graphics->newBitmap(400, 240, kColorWhite);
  51:main.c        **** 		pd->graphics->getBitmapData(screenBuffer, NULL, NULL, NULL, NULL, &screenBufferData);
 403              		.loc 1 51 16 view .LVU76
 404 002c 2649     		ldr	r1, .L26+12	@ tmp163,
 405              	@ main.c:52: 		pd->graphics->getBitmapData(screenBuffer, NULL, NULL, NULL, NULL, &screenBufferData)
  52:main.c        **** 		pd->display->setRefreshRate(0);
 406              		.loc 1 52 3 view .LVU77
 407 002e 2A46     		mov	r2, r5	@, event
 408              	@ main.c:52: 		pd->graphics->getBitmapData(screenBuffer, NULL, NULL, NULL, NULL, &screenBufferData)
  52:main.c        **** 		pd->display->setRefreshRate(0);
 409              		.loc 1 52 15 view .LVU78
 410 0030 BF68     		ldr	r7, [r7, #8]	@ pd.7_9->graphics, pd.7_9->graphics
 411              	@ main.c:52: 		pd->graphics->getBitmapData(screenBuffer, NULL, NULL, NULL, NULL, &screenBufferData)
  52:main.c        **** 		pd->display->setRefreshRate(0);
 412              		.loc 1 52 3 view .LVU79
 413 0032 2B46     		mov	r3, r5	@, event
 414              	@ main.c:51: 		screenBuffer = pd->graphics->newBitmap(400, 240, kColorWhite);
  51:main.c        **** 		pd->graphics->getBitmapData(screenBuffer, NULL, NULL, NULL, NULL, &screenBufferData);
 415              		.loc 1 51 16 view .LVU80
ARM GAS  /var/folders/7s/0cf3ym1n6ks3kh0bbp527rx00000gn/T//ccmOjFkz.s 			page 11


 416 0034 0860     		str	r0, [r1]	@ tmp209, screenBuffer
  52:main.c        **** 		pd->display->setRefreshRate(0);
 417              		.loc 1 52 3 is_stmt 1 view .LVU81
 418 0036 2946     		mov	r1, r5	@, event
 419 0038 CDE90054 		strd	r5, r4, [sp]	@ event, tmp203,
 420 003c 3F6F     		ldr	r7, [r7, #112]	@ _10->getBitmapData, _10->getBitmapData
 421 003e B847     		blx	r7		@ _10->getBitmapData
 422              	.LVL15:
  53:main.c        **** 		int a = 5;
 423              		.loc 1 53 3 view .LVU82
 424              	@ main.c:53: 		pd->display->setRefreshRate(0);
  53:main.c        **** 		int a = 5;
 425              		.loc 1 53 5 is_stmt 0 view .LVU83
 426 0040 3368     		ldr	r3, [r6]	@ pd, pd
 427              	@ main.c:53: 		pd->display->setRefreshRate(0);
  53:main.c        **** 		int a = 5;
 428              		.loc 1 53 3 view .LVU84
 429 0042 9FED220A 		vldr.32	s0, .L26+16	@,
 430              	@ main.c:53: 		pd->display->setRefreshRate(0);
  53:main.c        **** 		int a = 5;
 431              		.loc 1 53 14 view .LVU85
 432 0046 1B69     		ldr	r3, [r3, #16]	@ pd.9_12->display, pd.9_12->display
 433              	@ main.c:53: 		pd->display->setRefreshRate(0);
  53:main.c        **** 		int a = 5;
 434              		.loc 1 53 3 view .LVU86
 435 0048 9B68     		ldr	r3, [r3, #8]	@ _13->setRefreshRate, _13->setRefreshRate
 436 004a 9847     		blx	r3		@ _13->setRefreshRate
 437              	.LVL16:
  54:main.c        **** 		pd->system->logToConsole("%d",a);
 438              		.loc 1 54 3 is_stmt 1 view .LVU87
  55:main.c        **** 		int b = engineStart(a);
 439              		.loc 1 55 3 view .LVU88
 440              	@ main.c:55: 		pd->system->logToConsole("%d",a);
  55:main.c        **** 		int b = engineStart(a);
 441              		.loc 1 55 5 is_stmt 0 view .LVU89
 442 004c 3368     		ldr	r3, [r6]	@ pd, pd
 443              	@ main.c:55: 		pd->system->logToConsole("%d",a);
  55:main.c        **** 		int b = engineStart(a);
 444              		.loc 1 55 3 view .LVU90
 445 004e 0521     		movs	r1, #5	@,
 446 0050 1F48     		ldr	r0, .L26+20	@,
 447              	@ main.c:55: 		pd->system->logToConsole("%d",a);
  55:main.c        **** 		int b = engineStart(a);
 448              		.loc 1 55 13 view .LVU91
 449 0052 1B68     		ldr	r3, [r3]	@ pd.10_15->system, pd.10_15->system
 450              	@ main.c:55: 		pd->system->logToConsole("%d",a);
  55:main.c        **** 		int b = engineStart(a);
 451              		.loc 1 55 3 view .LVU92
 452 0054 9B68     		ldr	r3, [r3, #8]	@ _16->logToConsole, _16->logToConsole
 453 0056 9847     		blx	r3		@ _16->logToConsole
 454              	.LVL17:
  56:main.c        **** 		pd->system->logToConsole("%d",b);
 455              		.loc 1 56 3 is_stmt 1 view .LVU93
 456              	@ main.c:56: 		int b = engineStart(a);
  56:main.c        **** 		pd->system->logToConsole("%d",b);
 457              		.loc 1 56 11 is_stmt 0 view .LVU94
 458 0058 0520     		movs	r0, #5	@,
ARM GAS  /var/folders/7s/0cf3ym1n6ks3kh0bbp527rx00000gn/T//ccmOjFkz.s 			page 12


 459 005a FFF7FEFF 		bl	engineStart		@
 460              	.LVL18:
 461              	@ main.c:57: 		pd->system->logToConsole("%d",b);
  57:main.c        **** 		
 462              		.loc 1 57 5 view .LVU95
 463 005e 3368     		ldr	r3, [r6]	@ pd, pd
 464              	@ main.c:56: 		int b = engineStart(a);
  56:main.c        **** 		pd->system->logToConsole("%d",b);
 465              		.loc 1 56 11 view .LVU96
 466 0060 0146     		mov	r1, r0	@ tmp210,
 467              	.LVL19:
  57:main.c        **** 		
 468              		.loc 1 57 3 is_stmt 1 view .LVU97
 469 0062 1B48     		ldr	r0, .L26+20	@,
 470              	.LVL20:
 471              	@ main.c:57: 		pd->system->logToConsole("%d",b);
  57:main.c        **** 		
 472              		.loc 1 57 13 is_stmt 0 view .LVU98
 473 0064 1B68     		ldr	r3, [r3]	@ pd.11_18->system, pd.11_18->system
 474              	@ main.c:57: 		pd->system->logToConsole("%d",b);
  57:main.c        **** 		
 475              		.loc 1 57 3 view .LVU99
 476 0066 9B68     		ldr	r3, [r3, #8]	@ _19->logToConsole, _19->logToConsole
 477 0068 9847     		blx	r3		@ _19->logToConsole
 478              	.LVL21:
  59:main.c        **** 		{
 479              		.loc 1 59 3 is_stmt 1 view .LVU100
 480              	.LBB8:
  59:main.c        **** 		{
 481              		.loc 1 59 8 view .LVU101
  59:main.c        **** 		{
 482              		.loc 1 59 19 view .LVU102
 483              	@ main.c:59: 		for (int i = 0; i < 400; i++)
  59:main.c        **** 		{
 484              		.loc 1 59 12 is_stmt 0 view .LVU103
 485 006a 2946     		mov	r1, r5	@ i, event
 486              	.LBB9:
 487              	.LBB10:
 488              	.LBB11:
 489              	@ main.c:40: 	screenBufferData[byteIndex] &= ~(1 << bitIndex);
  40:main.c        **** }
 490              		.loc 1 40 37 view .LVU104
 491 006c 4FF0010E 		mov	lr, #1	@ tmp199,
 492              	@ main.c:40: 	screenBufferData[byteIndex] &= ~(1 << bitIndex);
  40:main.c        **** }
 493              		.loc 1 40 30 view .LVU105
 494 0070 4FF0340C 		mov	ip, #52	@ tmp204,
 495              	.LVL22:
 496              	.L14:
  40:main.c        **** }
 497              		.loc 1 40 30 view .LVU106
 498              	.LBE11:
 499              	.LBE10:
  61:main.c        **** 			{
 500              		.loc 1 61 20 is_stmt 1 view .LVU107
 501              	.LBB17:
 502              	.LBB12:
ARM GAS  /var/folders/7s/0cf3ym1n6ks3kh0bbp527rx00000gn/T//ccmOjFkz.s 			page 13


 503              	@ main.c:40: 	screenBufferData[byteIndex] &= ~(1 << bitIndex);
  40:main.c        **** }
 504              		.loc 1 40 37 is_stmt 0 view .LVU108
 505 0074 CE43     		mvns	r6, r1	@ tmp196, i
 506              	@ main.c:38: 	int byteIndex = 52 * y + x / 8; //52 Rowbytes
  38:main.c        **** 	int bitIndex = 7 - x % 8;
 507              		.loc 1 38 29 view .LVU109
 508 0076 CF10     		asrs	r7, r1, #3	@ _47, i,
 509              	.LBE12:
 510              	.LBE17:
 511              	@ main.c:61: 			for (int j = 0; j < 240; j++)
  61:main.c        **** 			{
 512              		.loc 1 61 13 view .LVU110
 513 0078 0023     		movs	r3, #0	@ j,
 514              	.LBB18:
 515              	.LBB13:
 516              	@ main.c:40: 	screenBufferData[byteIndex] &= ~(1 << bitIndex);
  40:main.c        **** }
 517              		.loc 1 40 37 view .LVU111
 518 007a 06F00706 		and	r6, r6, #7	@ tmp197, tmp196,
 519 007e 0EFA06F6 		lsl	r6, lr, r6	@ tmp198, tmp199, tmp197
 520              	@ main.c:40: 	screenBufferData[byteIndex] &= ~(1 << bitIndex);
  40:main.c        **** }
 521              		.loc 1 40 30 view .LVU112
 522 0082 F643     		mvns	r6, r6	@ tmp201, tmp198
 523 0084 76B2     		sxtb	r6, r6	@ _57, tmp201
 524 0086 02E0     		b	.L16		@
 525              	.LVL23:
 526              	.L15:
  40:main.c        **** }
 527              		.loc 1 40 30 view .LVU113
 528              	.LBE13:
 529              	.LBE18:
 530              	@ main.c:61: 			for (int j = 0; j < 240; j++)
  61:main.c        **** 			{
 531              		.loc 1 61 30 discriminator 2 view .LVU114
 532 0088 0133     		adds	r3, r3, #1	@ j, j,
 533              	.LVL24:
  61:main.c        **** 			{
 534              		.loc 1 61 20 is_stmt 1 discriminator 2 view .LVU115
 535              	@ main.c:61: 			for (int j = 0; j < 240; j++)
  61:main.c        **** 			{
 536              		.loc 1 61 4 is_stmt 0 discriminator 2 view .LVU116
 537 008a F02B     		cmp	r3, #240	@ j,
 538 008c 0DD0     		beq	.L25		@,
 539              	.LVL25:
 540              	.L16:
  63:main.c        **** 					drawPixel(i, j);
 541              		.loc 1 63 5 is_stmt 1 view .LVU117
  61:main.c        **** 			{
 542              		.loc 1 61 29 view .LVU118
 543              	@ main.c:63: 				if(i%2 == 0 && j%2 == 0){
  63:main.c        **** 					drawPixel(i, j);
 544              		.loc 1 63 17 is_stmt 0 view .LVU119
 545 008e 43EA0102 		orr	r2, r3, r1	@ tmp185, j, i
 546 0092 D207     		lsls	r2, r2, #31	@, tmp185,
 547 0094 F8D4     		bmi	.L15		@,
ARM GAS  /var/folders/7s/0cf3ym1n6ks3kh0bbp527rx00000gn/T//ccmOjFkz.s 			page 14


  64:main.c        **** 				} 
 548              		.loc 1 64 6 is_stmt 1 view .LVU120
 549              	.LVL26:
 550              	.LBB19:
 551              	.LBI10:
  37:main.c        **** 	int byteIndex = 52 * y + x / 8; //52 Rowbytes
 552              		.loc 1 37 6 view .LVU121
 553              	.LBB14:
  38:main.c        **** 	int bitIndex = 7 - x % 8;
 554              		.loc 1 38 2 view .LVU122
  39:main.c        **** 	screenBufferData[byteIndex] &= ~(1 << bitIndex);
 555              		.loc 1 39 2 view .LVU123
  40:main.c        **** }
 556              		.loc 1 40 2 view .LVU124
 557              	@ main.c:40: 	screenBufferData[byteIndex] &= ~(1 << bitIndex);
  40:main.c        **** }
 558              		.loc 1 40 30 is_stmt 0 view .LVU125
 559 0096 0CFB0372 		mla	r2, ip, r3, r7	@ tmp190, tmp204, j, _47
 560 009a 2568     		ldr	r5, [r4]	@ screenBufferData, screenBufferData
 561              	.LBE14:
 562              	.LBE19:
 563              	@ main.c:61: 			for (int j = 0; j < 240; j++)
  61:main.c        **** 			{
 564              		.loc 1 61 30 view .LVU126
 565 009c 0133     		adds	r3, r3, #1	@ j, j,
 566              	.LVL27:
  61:main.c        **** 			{
 567              		.loc 1 61 20 is_stmt 1 view .LVU127
 568              	.LBB20:
 569              	.LBB15:
 570              	@ main.c:40: 	screenBufferData[byteIndex] &= ~(1 << bitIndex);
  40:main.c        **** }
 571              		.loc 1 40 30 is_stmt 0 view .LVU128
 572 009e A85C     		ldrb	r0, [r5, r2]	@ zero_extendqisi2	@ *_52, *_52
 573              	.LBE15:
 574              	.LBE20:
 575              	@ main.c:61: 			for (int j = 0; j < 240; j++)
  61:main.c        **** 			{
 576              		.loc 1 61 4 view .LVU129
 577 00a0 F02B     		cmp	r3, #240	@ j,
 578              	.LBB21:
 579              	.LBB16:
 580              	@ main.c:40: 	screenBufferData[byteIndex] &= ~(1 << bitIndex);
  40:main.c        **** }
 581              		.loc 1 40 30 view .LVU130
 582 00a2 00EA0600 		and	r0, r0, r6	@ tmp194, *_52, _57
 583 00a6 A854     		strb	r0, [r5, r2]	@ tmp194, *_52
 584              	.LBE16:
 585              	.LBE21:
 586              	@ main.c:61: 			for (int j = 0; j < 240; j++)
  61:main.c        **** 			{
 587              		.loc 1 61 4 view .LVU131
 588 00a8 F1D1     		bne	.L16		@,
 589              	.LVL28:
 590              	.L25:
  61:main.c        **** 			{
 591              		.loc 1 61 4 view .LVU132
ARM GAS  /var/folders/7s/0cf3ym1n6ks3kh0bbp527rx00000gn/T//ccmOjFkz.s 			page 15


 592              	.LBE9:
  59:main.c        **** 		{
 593              		.loc 1 59 28 is_stmt 1 discriminator 2 view .LVU133
 594              	@ main.c:59: 		for (int i = 0; i < 400; i++)
  59:main.c        **** 		{
 595              		.loc 1 59 29 is_stmt 0 discriminator 2 view .LVU134
 596 00aa 0131     		adds	r1, r1, #1	@ i, i,
 597              	.LVL29:
  59:main.c        **** 		{
 598              		.loc 1 59 19 is_stmt 1 discriminator 2 view .LVU135
 599              	@ main.c:59: 		for (int i = 0; i < 400; i++)
  59:main.c        **** 		{
 600              		.loc 1 59 3 is_stmt 0 discriminator 2 view .LVU136
 601 00ac B1F5C87F 		cmp	r1, #400	@ i,
 602 00b0 E0D1     		bne	.L14		@,
 603              	.LBE8:
 604              	.LBE23:
  70:main.c        **** }
 605              		.loc 1 70 2 is_stmt 1 view .LVU137
 606              	@ main.c:71: }
  71:main.c        **** 
 607              		.loc 1 71 1 is_stmt 0 view .LVU138
 608 00b2 0020     		movs	r0, #0	@,
 609 00b4 03B0     		add	sp, sp, #12	@,,
 610              	.LCFI5:
 611              		.cfi_def_cfa_offset 20
 612              		@ sp needed	@
 613 00b6 F0BD     		pop	{r4, r5, r6, r7, pc}	@
 614              	.LVL30:
 615              	.L22:
 616              	.LCFI6:
 617              		.cfi_def_cfa_offset 0
 618              		.cfi_restore 4
 619              		.cfi_restore 5
 620              		.cfi_restore 6
 621              		.cfi_restore 7
 622              		.cfi_restore 14
  70:main.c        **** }
 623              		.loc 1 70 2 is_stmt 1 view .LVU139
 624              	@ main.c:71: }
  71:main.c        **** 
 625              		.loc 1 71 1 is_stmt 0 view .LVU140
 626 00b8 0020     		movs	r0, #0	@,
 627              	.LVL31:
  71:main.c        **** 
 628              		.loc 1 71 1 view .LVU141
 629 00ba 7047     		bx	lr	@
 630              	.L27:
 631              		.align	2
 632              	.L26:
 633 00bc 00000000 		.word	.LANCHOR0
 634 00c0 00000000 		.word	update
 635 00c4 00000000 		.word	.LANCHOR4
 636 00c8 00000000 		.word	.LANCHOR3
 637 00cc 00000000 		.word	0
 638 00d0 00000000 		.word	.LC0
 639              		.cfi_endproc
ARM GAS  /var/folders/7s/0cf3ym1n6ks3kh0bbp527rx00000gn/T//ccmOjFkz.s 			page 16


 640              	.LFE16:
 641              		.size	eventHandler, .-eventHandler
 642              		.global	deltaTimeMS
 643              		.global	lastFrame
 644              		.global	mtx9c
 645              		.global	mtx17c
 646              		.global	screenBufferData
 647              		.global	screenBuffer
 648              		.global	pd
 649              		.section	.bss.deltaTimeMS,"aw",%nobits
 650              		.align	2
 651              		.set	.LANCHOR1,. + 0
 652              		.type	deltaTimeMS, %object
 653              		.size	deltaTimeMS, 4
 654              	deltaTimeMS:
 655 0000 00000000 		.space	4
 656              		.section	.bss.lastFrame,"aw",%nobits
 657              		.align	2
 658              		.set	.LANCHOR2,. + 0
 659              		.type	lastFrame, %object
 660              		.size	lastFrame, 4
 661              	lastFrame:
 662 0000 00000000 		.space	4
 663              		.section	.bss.pd,"aw",%nobits
 664              		.align	2
 665              		.set	.LANCHOR0,. + 0
 666              		.type	pd, %object
 667              		.size	pd, 4
 668              	pd:
 669 0000 00000000 		.space	4
 670              		.section	.bss.screenBuffer,"aw",%nobits
 671              		.align	2
 672              		.set	.LANCHOR3,. + 0
 673              		.type	screenBuffer, %object
 674              		.size	screenBuffer, 4
 675              	screenBuffer:
 676 0000 00000000 		.space	4
 677              		.section	.bss.screenBufferData,"aw",%nobits
 678              		.align	2
 679              		.set	.LANCHOR4,. + 0
 680              		.type	screenBufferData, %object
 681              		.size	screenBufferData, 4
 682              	screenBufferData:
 683 0000 00000000 		.space	4
 684              		.section	.data.mtx17c,"aw"
 685              		.align	2
 686              		.type	mtx17c, %object
 687              		.size	mtx17c, 64
 688              	mtx17c:
 689 0000 F1F0703F 		.word	1064366321
 690 0004 F1F0F03E 		.word	1055977713
 691 0008 D3D2523F 		.word	1062392531
 692 000c B5B4B43E 		.word	1052030133
 693 0010 F1F0703E 		.word	1047589105
 694 0014 B5B4343F 		.word	1060418741
 695 0018 F1F0F03D 		.word	1039200497
 696 001c 9796163F 		.word	1058444951
ARM GAS  /var/folders/7s/0cf3ym1n6ks3kh0bbp527rx00000gn/T//ccmOjFkz.s 			page 17


 697 0020 C4C3433F 		.word	1061405636
 698 0024 9796963E 		.word	1050056343
 699 0028 E2E1613F 		.word	1063379426
 700 002c D3D2D23E 		.word	1054003923
 701 0030 F1F0703D 		.word	1030811889
 702 0034 8887073F 		.word	1057458056
 703 0038 B5B4343E 		.word	1043641525
 704 003c A6A5253F 		.word	1059431846
 705              		.section	.data.mtx9c,"aw"
 706              		.align	2
 707              		.type	mtx9c, %object
 708              		.size	mtx9c, 64
 709              	mtx9c:
 710 0000 398E633F 		.word	1063489081
 711 0004 398EE33E 		.word	1055100473
 712 0008 721C473F 		.word	1061624946
 713 000c ABAAAA3E 		.word	1051372203
 714 0010 398E633E 		.word	1046711865
 715 0014 ABAA2A3F 		.word	1059760811
 716 0018 398EE33D 		.word	1038323257
 717 001c E4380E3F 		.word	1057896676
 718 0020 721C473F 		.word	1061624946
 719 0024 ABAAAA3E 		.word	1051372203
 720 0028 398E633F 		.word	1063489081
 721 002c 398EE33E 		.word	1055100473
 722 0030 398EE33D 		.word	1038323257
 723 0034 E4380E3F 		.word	1057896676
 724 0038 398E633E 		.word	1046711865
 725 003c ABAA2A3F 		.word	1059760811
 726              		.text
 727              	.Letext0:
 728              		.file 2 "/usr/local/playdate/gcc-arm-none-eabi-9-2019-q4-major/arm-none-eabi/include/machine/_defa
 729              		.file 3 "/usr/local/playdate/gcc-arm-none-eabi-9-2019-q4-major/lib/gcc/arm-none-eabi/9.2.1/include
 730              		.file 4 "/usr/local/playdate/gcc-arm-none-eabi-9-2019-q4-major/lib/gcc/arm-none-eabi/9.2.1/include
 731              		.file 5 "/usr/local/playdate/gcc-arm-none-eabi-9-2019-q4-major/arm-none-eabi/include/stdio.h"
 732              		.file 6 "/usr/local/playdate/gcc-arm-none-eabi-9-2019-q4-major/arm-none-eabi/include/sys/lock.h"
 733              		.file 7 "/usr/local/playdate/gcc-arm-none-eabi-9-2019-q4-major/arm-none-eabi/include/sys/_types.h"
 734              		.file 8 "/usr/local/playdate/gcc-arm-none-eabi-9-2019-q4-major/arm-none-eabi/include/sys/reent.h"
 735              		.file 9 "/usr/local/playdate/gcc-arm-none-eabi-9-2019-q4-major/arm-none-eabi/include/sys/_stdint.h
 736              		.file 10 "/usr/local/playdate/gcc-arm-none-eabi-9-2019-q4-major/arm-none-eabi/include/stdlib.h"
 737              		.file 11 "/usr/local/playdate/gcc-arm-none-eabi-9-2019-q4-major/arm-none-eabi/include/math.h"
 738              		.file 12 "/Users/pablomac/Developer/PlaydateSDK/C_API/pd_api/pd_api_gfx.h"
 739              		.file 13 "/Users/pablomac/Developer/PlaydateSDK/C_API/pd_api/pd_api_sys.h"
 740              		.file 14 "/Users/pablomac/Developer/PlaydateSDK/C_API/pd_api/pd_api_lua.h"
 741              		.file 15 "/Users/pablomac/Developer/PlaydateSDK/C_API/pd_api/pd_api_json.h"
 742              		.file 16 "/Users/pablomac/Developer/PlaydateSDK/C_API/pd_api/pd_api_file.h"
 743              		.file 17 "/Users/pablomac/Developer/PlaydateSDK/C_API/pd_api/pd_api_sprite.h"
 744              		.file 18 "/Users/pablomac/Developer/PlaydateSDK/C_API/pd_api/pd_api_sound.h"
 745              		.file 19 "/Users/pablomac/Developer/PlaydateSDK/C_API/pd_api/pd_api_display.h"
 746              		.file 20 "/Users/pablomac/Developer/PlaydateSDK/C_API/pd_api/pd_api_scoreboards.h"
 747              		.file 21 "/Users/pablomac/Developer/PlaydateSDK/C_API/pd_api.h"
 748              		.file 22 "<built-in>"
 749              		.file 23 "arbero/engine.h"